; Function Attrs: mustprogress nofree norecurse nosync nounwind willreturn memory(read, inaccessiblemem: none) uwtable
define noundef zeroext i1 @_ZNK32pxrInternal_v0_24__pxrReserved__7GfVec2heqERKNS_7GfVec2dE(ptr nocapture noundef nonnull readonly align 2 dereferenceable(4) %0, ptr nocapture noundef nonnull readonly align 8 dereferenceable(16) %1) local_unnamed_addr #2 align 2 {
  %3 = load i16, ptr %0, align 2
  %4 = zext i16 %3 to i64
  %5 = getelementptr inbounds [65536 x %"union.pxrInternal_v0_24__pxrReserved__::pxr_half::half::uif"], ptr @_ZN32pxrInternal_v0_24__pxrReserved__8pxr_half4half8_toFloatE, i64 0, i64 %4
  %6 = load float, ptr %5, align 4
  %7 = fpext float %6 to double
  %8 = load double, ptr %1, align 8
  %9 = fcmp oeq double %8, %7
  br i1 %9, label %10, label %20

10:                                               ; preds = %2
  %11 = getelementptr inbounds i8, ptr %0, i64 2
  %12 = load i16, ptr %11, align 2
  %13 = zext i16 %12 to i64
  %14 = getelementptr inbounds [65536 x %"union.pxrInternal_v0_24__pxrReserved__::pxr_half::half::uif"], ptr @_ZN32pxrInternal_v0_24__pxrReserved__8pxr_half4half8_toFloatE, i64 0, i64 %13
  %15 = load float, ptr %14, align 4
  %16 = fpext float %15 to double
  %17 = getelementptr inbounds i8, ptr %1, i64 8
  %18 = load double, ptr %17, align 8
  %19 = fcmp oeq double %18, %16
  br label %20

20:                                               ; preds = %10, %2
  %21 = phi i1 [ false, %2 ], [ %19, %10 ]
  ret i1 %21
}